target datalayout = "e-m:e-p270:32:32-p271:32:32-p272:64:64-i64:64-i128:128-f80:128-n8:16:32:64-S128"
target triple = "x86_64-unknown-linux-gnu"

%"class.hermes::ESTree::FunctionLikeNode.base" = type <{ %"class.hermes::ESTree::Node", %"class.hermes::ESTree::FunctionLikeDecoration.base" }>
%"class.hermes::ESTree::Node" = type { %"class.llvh::ilist_node", i32, i32, %"class.llvh::SMRange", %"class.llvh::SMLoc" }
%"class.llvh::ilist_node" = type { %"class.llvh::ilist_node_impl" }
%"class.llvh::ilist_node_impl" = type { %"class.llvh::ilist_node_base" }
%"class.llvh::ilist_node_base" = type { ptr, ptr }
%"class.llvh::SMRange" = type { %"class.llvh::SMLoc", %"class.llvh::SMLoc" }
%"class.llvh::SMLoc" = type { ptr }
%"class.hermes::ESTree::FunctionLikeDecoration.base" = type <{ ptr, i32, i32, i8 }>
%"class.llvh::simple_ilist" = type { %"class.llvh::ilist_sentinel" }
%"class.llvh::ilist_sentinel" = type { %"class.llvh::ilist_node_impl" }
%"class.hermes::ESTree::ComponentDeclarationNode" = type { %"class.hermes::ESTree::FunctionLikeNode.base", ptr, %"class.llvh::simple_ilist", ptr, ptr, ptr }

; Function Attrs: mustprogress nounwind uwtable
define hidden void @_ZN6hermes3sem17SemanticValidator5visitEPNS_6ESTree24ComponentDeclarationNodeE(ptr noundef nonnull align 8 dereferenceable(168) %this, ptr noundef %componentDecl) #0 align 2 {
entry:
  %this.addr = alloca ptr, align 8
  %componentDecl.addr = alloca ptr, align 8
  store ptr %this, ptr %this.addr, align 8
  store ptr %componentDecl, ptr %componentDecl.addr, align 8
  %this1 = load ptr, ptr %this.addr, align 8
  %0 = load ptr, ptr %componentDecl.addr, align 8
  %1 = load ptr, ptr %componentDecl.addr, align 8
  %_id = getelementptr inbounds %"class.hermes::ESTree::ComponentDeclarationNode", ptr %1, i32 0, i32 1
  %2 = load ptr, ptr %_id, align 8
  %3 = load ptr, ptr %componentDecl.addr, align 8
  %_params = getelementptr inbounds %"class.hermes::ESTree::ComponentDeclarationNode", ptr %3, i32 0, i32 2
  %4 = load ptr, ptr %componentDecl.addr, align 8
  %_body = getelementptr inbounds %"class.hermes::ESTree::ComponentDeclarationNode", ptr %4, i32 0, i32 3
  %5 = load ptr, ptr %_body, align 8
  call void @_ZN6hermes3sem17SemanticValidator13visitFunctionEPNS_6ESTree16FunctionLikeNodeEPNS2_4NodeERN4llvh12simple_ilistIS5_JEEES6_(ptr noundef nonnull align 8 dereferenceable(168) %this1, ptr noundef %0, ptr noundef %2, ptr noundef nonnull align 8 dereferenceable(16) %_params, ptr noundef %5)
  ret void
}