; Function Attrs: mustprogress nounwind uwtable
define hidden void @_ZN6hermes3sem17SemanticValidator5visitEPNS_6ESTree24ComponentDeclarationNodeE(ptr noundef nonnull align 8 dereferenceable(168) %this, ptr noundef %componentDecl) local_unnamed_addr #0 align 2 {
entry:
  %_id = getelementptr inbounds nuw i8, ptr %componentDecl, i64 72
  %0 = load ptr, ptr %_id, align 8
  %_params = getelementptr inbounds nuw i8, ptr %componentDecl, i64 80
  %_body = getelementptr inbounds nuw i8, ptr %componentDecl, i64 96
  %1 = load ptr, ptr %_body, align 8
  tail call void @_ZN6hermes3sem17SemanticValidator13visitFunctionEPNS_6ESTree16FunctionLikeNodeEPNS2_4NodeERN4llvh12simple_ilistIS5_JEEES6_(ptr noundef nonnull align 8 dereferenceable(168) %this, ptr noundef %componentDecl, ptr noundef %0, ptr noundef nonnull align 8 dereferenceable(16) %_params, ptr noundef %1)
  ret void
}